target datalayout = "e-m:e-p270:32:32-p271:32:32-p272:64:64-i64:64-i128:128-f80:128-n8:16:32:64-S128"
target triple = "x86_64-pc-linux-gnu"

%struct.darktable_t = type { %struct.dt_codepath_t, i32, i32, ptr, ptr, ptr, ptr, ptr, ptr, ptr, ptr, ptr, ptr, ptr, ptr, ptr, ptr, ptr, ptr, ptr, ptr, ptr, ptr, ptr, ptr, ptr, ptr, ptr, ptr, ptr, [64 x %struct.dt_pthread_mutex_t], %struct.dt_pthread_mutex_t, %struct.dt_pthread_mutex_t, %struct.dt_pthread_mutex_t, %struct.dt_pthread_mutex_t, %struct.dt_pthread_mutex_t, ptr, ptr, ptr, ptr, ptr, ptr, ptr, ptr, ptr, ptr, ptr, ptr, ptr, %struct.dt_lua_state_t, ptr, double, ptr, i32, [47 x i32], i32, i32, ptr, ptr, %struct.dt_sys_resources_t, %struct.dt_backthumb_t, %struct.dt_gimp_t }
%struct.dt_codepath_t = type { i8, [3 x i8] }
%struct.dt_pthread_mutex_t = type { %union.pthread_mutex_t }
%union.pthread_mutex_t = type { %struct.__pthread_mutex_s }
%struct.__pthread_mutex_s = type { i32, i32, i32, i32, i32, i16, i16, %struct.__pthread_internal_list }
%struct.__pthread_internal_list = type { ptr, ptr }
%struct.dt_lua_state_t = type { i32 }
%struct.dt_sys_resources_t = type { i64, i64, ptr, ptr, i32 }
%struct.dt_backthumb_t = type { double, double, i32, i32, i32, i32 }
%struct.dt_gimp_t = type { i32, ptr, ptr, i32, i32 }
%struct.dt_camctl_t = type { %struct.dt_pthread_mutex_t, %struct.dt_pthread_mutex_t, i64, ptr, ptr, ptr, ptr, ptr, ptr, ptr, ptr, i32, i32, i32 }
%struct.dt_camera_t = type { ptr, ptr, %struct.CameraText, ptr, ptr, %struct.dt_pthread_mutex_t, i32, i32, i32, i32, i32, i32, i32, i32, i32, ptr, %struct.dt_pthread_mutex_t, ptr, %struct.anon, ptr, ptr, i32, i32, i32, i32, ptr, i32, i32, i32, i32, i32, i32, i32, i32, i64, %struct.dt_pthread_mutex_t, %struct.dt_pthread_mutex_t }
%struct.CameraText = type { [32768 x i8] }
%struct.anon = type { ptr, i32 }
%struct._CameraFileInfo = type { %struct._CameraFileInfoPreview, %struct._CameraFileInfoFile, %struct._CameraFileInfoAudio }
%struct._CameraFileInfoPreview = type { i32, i32, i64, [64 x i8], i32, i32 }
%struct._CameraFileInfoFile = type { i32, i32, i64, [64 x i8], i32, i32, i32, i64 }
%struct._CameraFileInfoAudio = type { i32, i32, i64, [64 x i8] }
%struct.dt_camera_files_t = type { ptr, i64 }

@darktable = external global %struct.darktable_t, align 8
@.str.16 = private unnamed_addr constant [77 x i8] c"[camera_control] failed to get file information of %s in folder %s on device\00", align 1
@.str.17 = private unnamed_addr constant [2 x i8] c"/\00", align 1

; Function Attrs: nounwind uwtable
define internal ptr @_camctl_recursive_get_list(ptr noundef %0, ptr noundef %1) #0 {
  %3 = alloca ptr, align 8
  %4 = alloca ptr, align 8
  %5 = alloca ptr, align 8
  %6 = alloca ptr, align 8
  %7 = alloca ptr, align 8
  %8 = alloca i32, align 4
  %9 = alloca %struct._CameraFileInfo, align 8
  %10 = alloca ptr, align 8
  %11 = alloca ptr, align 8
  %12 = alloca ptr, align 8
  %13 = alloca i32, align 4
  %14 = alloca [4096 x i8], align 16
  %15 = alloca ptr, align 8
  store ptr %0, ptr %3, align 8, !tbaa !6
  store ptr %1, ptr %4, align 8, !tbaa !63
  call void @llvm.lifetime.start.p0(i64 8, ptr %5) #10
  store ptr null, ptr %5, align 8, !tbaa !85
  call void @llvm.lifetime.start.p0(i64 8, ptr %6) #10
  call void @llvm.lifetime.start.p0(i64 8, ptr %7) #10
  %16 = call i32 @gp_list_new(ptr noundef %6)
  %17 = load ptr, ptr %3, align 8, !tbaa !6
  %18 = getelementptr inbounds nuw %struct.dt_camctl_t, ptr %17, i32 0, i32 10
  %19 = load ptr, ptr %18, align 8, !tbaa !11
  %20 = getelementptr inbounds nuw %struct.dt_camera_t, ptr %19, i32 0, i32 19
  %21 = load ptr, ptr %20, align 8, !tbaa !96
  %22 = load ptr, ptr %4, align 8, !tbaa !63
  %23 = load ptr, ptr %6, align 8, !tbaa !109
  %24 = load ptr, ptr %3, align 8, !tbaa !6
  %25 = getelementptr inbounds nuw %struct.dt_camctl_t, ptr %24, i32 0, i32 6
  %26 = load ptr, ptr %25, align 8, !tbaa !79
  %27 = call i32 @gp_camera_folder_list_files(ptr noundef %21, ptr noundef %22, ptr noundef %23, ptr noundef %26)
  %28 = icmp eq i32 %27, 0
  br i1 %28, label %29, label %95

29:                                               ; preds = %2
  call void @llvm.lifetime.start.p0(i64 4, ptr %8) #10
  store i32 0, ptr %8, align 4, !tbaa !64
  br label %30

30:                                               ; preds = %91, %29
  %31 = load i32, ptr %8, align 4, !tbaa !64
  %32 = load ptr, ptr %6, align 8, !tbaa !109
  %33 = call i32 @gp_list_count(ptr noundef %32)
  %34 = icmp slt i32 %31, %33
  br i1 %34, label %36, label %35

35:                                               ; preds = %30
  call void @llvm.lifetime.end.p0(i64 4, ptr %8) #10
  br label %94

36:                                               ; preds = %30
  %37 = load ptr, ptr %6, align 8, !tbaa !109
  %38 = load i32, ptr %8, align 4, !tbaa !64
  %39 = call i32 @gp_list_get_name(ptr noundef %37, i32 noundef %38, ptr noundef %7)
  call void @llvm.lifetime.start.p0(i64 272, ptr %9) #10
  %40 = load ptr, ptr %3, align 8, !tbaa !6
  %41 = getelementptr inbounds nuw %struct.dt_camctl_t, ptr %40, i32 0, i32 10
  %42 = load ptr, ptr %41, align 8, !tbaa !11
  %43 = getelementptr inbounds nuw %struct.dt_camera_t, ptr %42, i32 0, i32 19
  %44 = load ptr, ptr %43, align 8, !tbaa !96
  %45 = load ptr, ptr %4, align 8, !tbaa !63
  %46 = load ptr, ptr %7, align 8, !tbaa !63
  %47 = load ptr, ptr %3, align 8, !tbaa !6
  %48 = getelementptr inbounds nuw %struct.dt_camctl_t, ptr %47, i32 0, i32 6
  %49 = load ptr, ptr %48, align 8, !tbaa !79
  %50 = call i32 @gp_camera_file_get_info(ptr noundef %44, ptr noundef %45, ptr noundef %46, ptr noundef %9, ptr noundef %49)
  %51 = icmp eq i32 %50, 0
  br i1 %51, label %68, label %52

52:                                               ; preds = %36
  br label %53

53:                                               ; preds = %52
  %54 = load i32, ptr getelementptr inbounds nuw (%struct.darktable_t, ptr @darktable, i32 0, i32 2), align 8, !tbaa !22
  %55 = and i32 32, %54
  %56 = icmp ne i32 %55, 0
  br i1 %56, label %57, label %65

57:                                               ; preds = %53
  %58 = load i32, ptr getelementptr inbounds nuw (%struct.darktable_t, ptr @darktable, i32 0, i32 2), align 8, !tbaa !22
  %59 = xor i32 %58, -1
  %60 = and i32 0, %59
  %61 = icmp ne i32 %60, 0
  br i1 %61, label %65, label %62

62:                                               ; preds = %57
  %63 = load ptr, ptr %7, align 8, !tbaa !63
  %64 = load ptr, ptr %4, align 8, !tbaa !63
  call void (ptr, ...) @dt_print_ext(ptr noundef @.str.16, ptr noundef %63, ptr noundef %64)
  br label %65

65:                                               ; preds = %62, %57, %53
  br label %66

66:                                               ; preds = %65
  br label %67

67:                                               ; preds = %66
  br label %90

68:                                               ; preds = %36
  call void @llvm.lifetime.start.p0(i64 8, ptr %10) #10
  %69 = call noalias ptr @g_malloc0(i64 noundef 16) #11
  store ptr %69, ptr %10, align 8, !tbaa !137
  %70 = getelementptr inbounds nuw %struct._CameraFileInfo, ptr %9, i32 0, i32 1
  %71 = getelementptr inbounds nuw %struct._CameraFileInfoFile, ptr %70, i32 0, i32 0
  %72 = load i32, ptr %71, align 8, !tbaa !139
  %73 = and i32 %72, 128
  %74 = icmp ne i32 %73, 0
  br i1 %74, label %75, label %81

75:                                               ; preds = %68
  %76 = getelementptr inbounds nuw %struct._CameraFileInfo, ptr %9, i32 0, i32 1
  %77 = getelementptr inbounds nuw %struct._CameraFileInfoFile, ptr %76, i32 0, i32 7
  %78 = load i64, ptr %77, align 8, !tbaa !132
  %79 = load ptr, ptr %10, align 8, !tbaa !137
  %80 = getelementptr inbounds nuw %struct.dt_camera_files_t, ptr %79, i32 0, i32 1
  store i64 %78, ptr %80, align 8, !tbaa !140
  br label %81

81:                                               ; preds = %75, %68
  %82 = load ptr, ptr %4, align 8, !tbaa !63
  %83 = load ptr, ptr %7, align 8, !tbaa !63
  %84 = call noalias ptr (ptr, ...) @g_build_filename(ptr noundef %82, ptr noundef %83, ptr noundef null)
  %85 = load ptr, ptr %10, align 8, !tbaa !137
  %86 = getelementptr inbounds nuw %struct.dt_camera_files_t, ptr %85, i32 0, i32 0
  store ptr %84, ptr %86, align 8, !tbaa !142
  %87 = load ptr, ptr %5, align 8, !tbaa !85
  %88 = load ptr, ptr %10, align 8, !tbaa !137
  %89 = call ptr @g_list_prepend(ptr noundef %87, ptr noundef %88)
  store ptr %89, ptr %5, align 8, !tbaa !85
  call void @llvm.lifetime.end.p0(i64 8, ptr %10) #10
  br label %90

90:                                               ; preds = %81, %67
  call void @llvm.lifetime.end.p0(i64 272, ptr %9) #10
  br label %91

91:                                               ; preds = %90
  %92 = load i32, ptr %8, align 4, !tbaa !64
  %93 = add nsw i32 %92, 1
  store i32 %93, ptr %8, align 4, !tbaa !64
  br label %30

94:                                               ; preds = %35
  br label %95

95:                                               ; preds = %94, %2
  %96 = load ptr, ptr %6, align 8, !tbaa !109
  %97 = call i32 @gp_list_free(ptr noundef %96)
  call void @llvm.lifetime.start.p0(i64 8, ptr %11) #10
  %98 = call i32 @gp_list_new(ptr noundef %11)
  %99 = load ptr, ptr %3, align 8, !tbaa !6
  %100 = getelementptr inbounds nuw %struct.dt_camctl_t, ptr %99, i32 0, i32 10
  %101 = load ptr, ptr %100, align 8, !tbaa !11
  %102 = getelementptr inbounds nuw %struct.dt_camera_t, ptr %101, i32 0, i32 19
  %103 = load ptr, ptr %102, align 8, !tbaa !96
  %104 = load ptr, ptr %4, align 8, !tbaa !63
  %105 = load ptr, ptr %11, align 8, !tbaa !109
  %106 = load ptr, ptr %3, align 8, !tbaa !6
  %107 = getelementptr inbounds nuw %struct.dt_camctl_t, ptr %106, i32 0, i32 6
  %108 = load ptr, ptr %107, align 8, !tbaa !79
  %109 = call i32 @gp_camera_folder_list_folders(ptr noundef %103, ptr noundef %104, ptr noundef %105, ptr noundef %108)
  %110 = icmp eq i32 %109, 0
  br i1 %110, label %111, label %151

111:                                              ; preds = %95
  call void @llvm.lifetime.start.p0(i64 8, ptr %12) #10
  call void @llvm.lifetime.start.p0(i64 4, ptr %13) #10
  store i32 0, ptr %13, align 4, !tbaa !64
  br label %112

112:                                              ; preds = %147, %111
  %113 = load i32, ptr %13, align 4, !tbaa !64
  %114 = load ptr, ptr %11, align 8, !tbaa !109
  %115 = call i32 @gp_list_count(ptr noundef %114)
  %116 = icmp slt i32 %113, %115
  br i1 %116, label %118, label %117

117:                                              ; preds = %112
  call void @llvm.lifetime.end.p0(i64 4, ptr %13) #10
  br label %150

118:                                              ; preds = %112
  call void @llvm.lifetime.start.p0(i64 4096, ptr %14) #10
  call void @llvm.memset.p0.i64(ptr align 16 %14, i8 0, i64 4096, i1 false)
  %119 = getelementptr inbounds [4096 x i8], ptr %14, i64 0, i64 0
  %120 = load ptr, ptr %4, align 8, !tbaa !63
  %121 = call i64 @g_strlcat(ptr noundef %119, ptr noundef %120, i64 noundef 4096)
  %122 = load ptr, ptr %4, align 8, !tbaa !63
  %123 = getelementptr inbounds i8, ptr %122, i64 1
  %124 = load i8, ptr %123, align 1, !tbaa !116
  %125 = sext i8 %124 to i32
  %126 = icmp ne i32 %125, 0
  br i1 %126, label %127, label %130

127:                                              ; preds = %118
  %128 = getelementptr inbounds [4096 x i8], ptr %14, i64 0, i64 0
  %129 = call i64 @g_strlcat(ptr noundef %128, ptr noundef @.str.17, i64 noundef 4096)
  br label %130

130:                                              ; preds = %127, %118
  %131 = load ptr, ptr %11, align 8, !tbaa !109
  %132 = load i32, ptr %13, align 4, !tbaa !64
  %133 = call i32 @gp_list_get_name(ptr noundef %131, i32 noundef %132, ptr noundef %12)
  %134 = getelementptr inbounds [4096 x i8], ptr %14, i64 0, i64 0
  %135 = load ptr, ptr %12, align 8, !tbaa !63
  %136 = call i64 @g_strlcat(ptr noundef %134, ptr noundef %135, i64 noundef 4096)
  call void @llvm.lifetime.start.p0(i64 8, ptr %15) #10
  %137 = load ptr, ptr %3, align 8, !tbaa !6
  %138 = getelementptr inbounds [4096 x i8], ptr %14, i64 0, i64 0
  %139 = call ptr @_camctl_recursive_get_list(ptr noundef %137, ptr noundef %138)
  store ptr %139, ptr %15, align 8, !tbaa !85
  %140 = load ptr, ptr %15, align 8, !tbaa !85
  %141 = icmp ne ptr %140, null
  br i1 %141, label %142, label %146

142:                                              ; preds = %130
  %143 = load ptr, ptr %5, align 8, !tbaa !85
  %144 = load ptr, ptr %15, align 8, !tbaa !85
  %145 = call ptr @g_list_concat(ptr noundef %143, ptr noundef %144)
  store ptr %145, ptr %5, align 8, !tbaa !85
  br label %146

146:                                              ; preds = %142, %130
  call void @llvm.lifetime.end.p0(i64 8, ptr %15) #10
  call void @llvm.lifetime.end.p0(i64 4096, ptr %14) #10
  br label %147

147:                                              ; preds = %146
  %148 = load i32, ptr %13, align 4, !tbaa !64
  %149 = add nsw i32 %148, 1
  store i32 %149, ptr %13, align 4, !tbaa !64
  br label %112

150:                                              ; preds = %117
  call void @llvm.lifetime.end.p0(i64 8, ptr %12) #10
  br label %151

151:                                              ; preds = %150, %95
  %152 = load ptr, ptr %11, align 8, !tbaa !109
  %153 = call i32 @gp_list_free(ptr noundef %152)
  %154 = load ptr, ptr %5, align 8, !tbaa !85
  call void @llvm.lifetime.end.p0(i64 8, ptr %11) #10
  call void @llvm.lifetime.end.p0(i64 8, ptr %7) #10
  call void @llvm.lifetime.end.p0(i64 8, ptr %6) #10
  call void @llvm.lifetime.end.p0(i64 8, ptr %5) #10
  ret ptr %154
}