; Function Attrs: nounwind uwtable
define internal fastcc ptr @_camctl_recursive_get_list(ptr noundef readonly captures(none) %0, ptr noundef %1) unnamed_addr #0 {
  %3 = alloca ptr, align 8
  %4 = alloca ptr, align 8
  %5 = alloca %struct._CameraFileInfo, align 8
  %6 = alloca ptr, align 8
  %7 = alloca ptr, align 8
  %8 = alloca [4096 x i8], align 16
  call void @llvm.lifetime.start.p0(i64 8, ptr nonnull %3) #15
  call void @llvm.lifetime.start.p0(i64 8, ptr nonnull %4) #15
  %9 = call i32 @gp_list_new(ptr noundef nonnull %3) #15
  %10 = getelementptr inbounds nuw i8, ptr %0, i64 144
  %11 = load ptr, ptr %10, align 8, !tbaa !6
  %12 = getelementptr inbounds nuw i8, ptr %11, i64 32952
  %13 = load ptr, ptr %12, align 8, !tbaa !94
  %14 = load ptr, ptr %3, align 8, !tbaa !101
  %15 = getelementptr inbounds nuw i8, ptr %0, i64 112
  %16 = load ptr, ptr %15, align 8, !tbaa !73
  %17 = call i32 @gp_camera_folder_list_files(ptr noundef %13, ptr noundef %1, ptr noundef %14, ptr noundef %16) #15
  %18 = icmp eq i32 %17, 0
  br i1 %18, label %.preheader, label %.loopexit

.preheader:                                       ; preds = %2
  %19 = load ptr, ptr %3, align 8, !tbaa !101
  %20 = call i32 @gp_list_count(ptr noundef %19) #15
  %21 = icmp sgt i32 %20, 0
  br i1 %21, label %.lr.ph, label %.loopexit

.lr.ph:                                           ; preds = %.preheader
  %22 = getelementptr inbounds nuw i8, ptr %5, i64 88
  %23 = getelementptr inbounds nuw i8, ptr %5, i64 184
  br label %24

24:                                               ; preds = %.lr.ph, %50
  %.134 = phi ptr [ null, %.lr.ph ], [ %.2, %50 ]
  %.02833 = phi i32 [ 0, %.lr.ph ], [ %51, %50 ]
  %25 = load ptr, ptr %3, align 8, !tbaa !101
  %26 = call i32 @gp_list_get_name(ptr noundef %25, i32 noundef %.02833, ptr noundef nonnull %4) #15
  call void @llvm.lifetime.start.p0(i64 272, ptr nonnull %5) #15
  %27 = load ptr, ptr %10, align 8, !tbaa !6
  %28 = getelementptr inbounds nuw i8, ptr %27, i64 32952
  %29 = load ptr, ptr %28, align 8, !tbaa !94
  %30 = load ptr, ptr %4, align 8, !tbaa !103
  %31 = load ptr, ptr %15, align 8, !tbaa !73
  %32 = call i32 @gp_camera_file_get_info(ptr noundef %29, ptr noundef %1, ptr noundef %30, ptr noundef nonnull %5, ptr noundef %31) #15
  %33 = icmp eq i32 %32, 0
  br i1 %33, label %39, label %34

34:                                               ; preds = %24
  %35 = load i32, ptr getelementptr inbounds nuw (i8, ptr @darktable, i64 8), align 8, !tbaa !19
  %36 = and i32 %35, 32
  %.not31 = icmp eq i32 %36, 0
  br i1 %.not31, label %50, label %37

37:                                               ; preds = %34
  %38 = load ptr, ptr %4, align 8, !tbaa !103
  call void (ptr, ...) @dt_print_ext(ptr noundef nonnull @.str.16, ptr noundef %38, ptr noundef %1) #15
  br label %50

39:                                               ; preds = %24
  %40 = call noalias dereferenceable_or_null(16) ptr @g_malloc0(i64 noundef 16) #16
  %41 = load i32, ptr %22, align 8, !tbaa !138
  %42 = and i32 %41, 128
  %.not32 = icmp eq i32 %42, 0
  br i1 %.not32, label %46, label %43

43:                                               ; preds = %39
  %44 = load i64, ptr %23, align 8, !tbaa !133
  %45 = getelementptr inbounds nuw i8, ptr %40, i64 8
  store i64 %44, ptr %45, align 8, !tbaa !139
  br label %46

46:                                               ; preds = %43, %39
  %47 = load ptr, ptr %4, align 8, !tbaa !103
  %48 = call noalias ptr (ptr, ...) @g_build_filename(ptr noundef %1, ptr noundef %47, ptr noundef null) #15
  store ptr %48, ptr %40, align 8, !tbaa !141
  %49 = call ptr @g_list_prepend(ptr noundef %.134, ptr noundef nonnull %40) #15
  br label %50

50:                                               ; preds = %34, %37, %46
  %.2 = phi ptr [ %49, %46 ], [ %.134, %37 ], [ %.134, %34 ]
  call void @llvm.lifetime.end.p0(i64 272, ptr nonnull %5) #15
  %51 = add nuw nsw i32 %.02833, 1
  %52 = load ptr, ptr %3, align 8, !tbaa !101
  %53 = call i32 @gp_list_count(ptr noundef %52) #15
  %54 = icmp slt i32 %51, %53
  br i1 %54, label %24, label %.loopexit

.loopexit:                                        ; preds = %50, %.preheader, %2
  %.0 = phi ptr [ null, %2 ], [ null, %.preheader ], [ %.2, %50 ]
  %55 = load ptr, ptr %3, align 8, !tbaa !101
  %56 = call i32 @gp_list_free(ptr noundef %55) #15
  call void @llvm.lifetime.start.p0(i64 8, ptr nonnull %6) #15
  %57 = call i32 @gp_list_new(ptr noundef nonnull %6) #15
  %58 = load ptr, ptr %10, align 8, !tbaa !6
  %59 = getelementptr inbounds nuw i8, ptr %58, i64 32952
  %60 = load ptr, ptr %59, align 8, !tbaa !94
  %61 = load ptr, ptr %6, align 8, !tbaa !101
  %62 = load ptr, ptr %15, align 8, !tbaa !73
  %63 = call i32 @gp_camera_folder_list_folders(ptr noundef %60, ptr noundef %1, ptr noundef %61, ptr noundef %62) #15
  %64 = icmp eq i32 %63, 0
  br i1 %64, label %65, label %88

65:                                               ; preds = %.loopexit
  call void @llvm.lifetime.start.p0(i64 8, ptr nonnull %7) #15
  %66 = load ptr, ptr %6, align 8, !tbaa !101
  %67 = call i32 @gp_list_count(ptr noundef %66) #15
  %68 = icmp sgt i32 %67, 0
  br i1 %68, label %.lr.ph37, label %._crit_edge

.lr.ph37:                                         ; preds = %65
  %69 = getelementptr inbounds nuw i8, ptr %1, i64 1
  br label %70

._crit_edge:                                      ; preds = %83, %65
  %.4.lcssa = phi ptr [ %.0, %65 ], [ %.5, %83 ]
  call void @llvm.lifetime.end.p0(i64 8, ptr nonnull %7) #15
  br label %88

70:                                               ; preds = %.lr.ph37, %83
  %.436 = phi ptr [ %.0, %.lr.ph37 ], [ %.5, %83 ]
  %.02735 = phi i32 [ 0, %.lr.ph37 ], [ %84, %83 ]
  call void @llvm.lifetime.start.p0(i64 4096, ptr nonnull %8) #15
  call void @llvm.memset.p0.i64(ptr noundef nonnull align 16 dereferenceable(4096) %8, i8 0, i64 4096, i1 false)
  %71 = call i64 @g_strlcat(ptr noundef nonnull %8, ptr noundef %1, i64 noundef 4096) #15
  %72 = load i8, ptr %69, align 1, !tbaa !121
  %.not = icmp eq i8 %72, 0
  br i1 %.not, label %75, label %73

73:                                               ; preds = %70
  %74 = call i64 @g_strlcat(ptr noundef nonnull %8, ptr noundef nonnull @.str.17, i64 noundef 4096) #15
  br label %75

75:                                               ; preds = %73, %70
  %76 = load ptr, ptr %6, align 8, !tbaa !101
  %77 = call i32 @gp_list_get_name(ptr noundef %76, i32 noundef %.02735, ptr noundef nonnull %7) #15
  %78 = load ptr, ptr %7, align 8, !tbaa !103
  %79 = call i64 @g_strlcat(ptr noundef nonnull %8, ptr noundef %78, i64 noundef 4096) #15
  %80 = call fastcc ptr @_camctl_recursive_get_list(ptr noundef %0, ptr noundef nonnull %8)
  %.not30 = icmp eq ptr %80, null
  br i1 %.not30, label %83, label %81

81:                                               ; preds = %75
  %82 = call ptr @g_list_concat(ptr noundef %.436, ptr noundef nonnull %80) #15
  br label %83

83:                                               ; preds = %81, %75
  %.5 = phi ptr [ %82, %81 ], [ %.436, %75 ]
  call void @llvm.lifetime.end.p0(i64 4096, ptr nonnull %8) #15
  %84 = add nuw nsw i32 %.02735, 1
  %85 = load ptr, ptr %6, align 8, !tbaa !101
  %86 = call i32 @gp_list_count(ptr noundef %85) #15
  %87 = icmp slt i32 %84, %86
  br i1 %87, label %70, label %._crit_edge

88:                                               ; preds = %._crit_edge, %.loopexit
  %.3 = phi ptr [ %.4.lcssa, %._crit_edge ], [ %.0, %.loopexit ]
  %89 = load ptr, ptr %6, align 8, !tbaa !101
  %90 = call i32 @gp_list_free(ptr noundef %89) #15
  call void @llvm.lifetime.end.p0(i64 8, ptr nonnull %6) #15
  call void @llvm.lifetime.end.p0(i64 8, ptr nonnull %4) #15
  call void @llvm.lifetime.end.p0(i64 8, ptr nonnull %3) #15
  ret ptr %.3
}